target datalayout = "e-m:e-p270:32:32-p271:32:32-p272:64:64-i64:64-i128:128-f80:128-n8:16:32:64-S128"
target triple = "x86_64-pc-linux-gnu"

%struct.AVChannelLayout = type { i32, i32, %union.anon, ptr }
%union.anon = type { i64 }
%struct.AVFormatContext = type { ptr, ptr, ptr, ptr, ptr, i32, i32, ptr, i32, ptr, i32, ptr, ptr, i64, i64, i64, i32, i32, i32, i64, i64, ptr, i32, i32, ptr, i32, i32, i32, i32, ptr, i64, i32, i32, %struct.AVIOInterruptCB, i32, i32, i32, i32, i64, i32, i32, i32, i32, i32, i32, i32, i32, i32, i32, i32, i32, i64, i32, i32, i32, i32, i32, ptr, ptr, ptr, ptr, i32, ptr, ptr, ptr, ptr, i32, ptr, ptr, i64, ptr, ptr, ptr, i64 }
%struct.AVIOInterruptCB = type { ptr, ptr }
%struct.AVStream = type { ptr, i32, i32, ptr, ptr, %struct.AVRational, i64, i64, i64, i32, i32, %struct.AVRational, ptr, %struct.AVRational, %struct.AVPacket, i32, %struct.AVRational, i32 }
%struct.AVPacket = type { ptr, i64, i64, ptr, i32, i32, i32, ptr, i32, i64, i64, ptr, ptr, %struct.AVRational }
%struct.AVRational = type { i32, i32 }
%struct.AVCodecParameters = type { i32, i32, i32, ptr, i32, ptr, i32, i32, i64, i32, i32, i32, i32, i32, i32, %struct.AVRational, %struct.AVRational, i32, i32, i32, i32, i32, i32, i32, %struct.AVChannelLayout, i32, i32, i32, i32, i32, i32 }
%struct.DSFContext = type { i64, i64, i64 }
%struct.FFFormatContext = type { %struct.AVFormatContext, i32, %struct.PacketList, i64, ptr, ptr, i32, ptr, i32 }
%struct.PacketList = type { ptr, ptr }

; Function Attrs: alwaysinline nounwind uwtable
define internal i64 @avio_tell(ptr noundef %0) #5 {
  %2 = alloca ptr, align 8
  store ptr %0, ptr %2, align 8, !tbaa !34
  %3 = load ptr, ptr %2, align 8, !tbaa !34
  %4 = call i64 @avio_seek(ptr noundef %3, i64 noundef 0, i32 noundef 1)
  ret i64 %4
}

; Function Attrs: alwaysinline nounwind uwtable
define internal ptr @ffformatcontext(ptr noundef %0) #5 {
  %2 = alloca ptr, align 8
  store ptr %0, ptr %2, align 8, !tbaa !15
  %3 = load ptr, ptr %2, align 8, !tbaa !15
  ret ptr %3
}

; Function Attrs: nounwind uwtable
define internal i32 @dsf_read_packet(ptr noundef %0, ptr noundef %1) #0 {
  %3 = alloca i32, align 4
  %4 = alloca ptr, align 8
  %5 = alloca ptr, align 8
  %6 = alloca ptr, align 8
  %7 = alloca ptr, align 8
  %8 = alloca ptr, align 8
  %9 = alloca ptr, align 8
  %10 = alloca i64, align 8
  %11 = alloca i32, align 4
  %12 = alloca i32, align 4
  %13 = alloca i32, align 4
  %14 = alloca i32, align 4
  %15 = alloca i64, align 8
  %16 = alloca i64, align 8
  %17 = alloca i64, align 8
  %18 = alloca ptr, align 8
  %19 = alloca i32, align 4
  %20 = alloca i32, align 4
  store ptr %0, ptr %4, align 8, !tbaa !15
  store ptr %1, ptr %5, align 8, !tbaa !61
  call void @llvm.lifetime.start.p0(i64 8, ptr %6) #7
  %21 = load ptr, ptr %4, align 8, !tbaa !15
  %22 = call ptr @ffformatcontext(ptr noundef %21)
  store ptr %22, ptr %6, align 8, !tbaa !63
  call void @llvm.lifetime.start.p0(i64 8, ptr %7) #7
  %23 = load ptr, ptr %4, align 8, !tbaa !15
  %24 = getelementptr inbounds nuw %struct.AVFormatContext, ptr %23, i32 0, i32 3
  %25 = load ptr, ptr %24, align 8, !tbaa !17
  store ptr %25, ptr %7, align 8, !tbaa !32
  call void @llvm.lifetime.start.p0(i64 8, ptr %8) #7
  %26 = load ptr, ptr %4, align 8, !tbaa !15
  %27 = getelementptr inbounds nuw %struct.AVFormatContext, ptr %26, i32 0, i32 4
  %28 = load ptr, ptr %27, align 8, !tbaa !33
  store ptr %28, ptr %8, align 8, !tbaa !34
  call void @llvm.lifetime.start.p0(i64 8, ptr %9) #7
  %29 = load ptr, ptr %4, align 8, !tbaa !15
  %30 = getelementptr inbounds nuw %struct.AVFormatContext, ptr %29, i32 0, i32 7
  %31 = load ptr, ptr %30, align 8, !tbaa !65
  %32 = getelementptr inbounds ptr, ptr %31, i64 0
  %33 = load ptr, ptr %32, align 8, !tbaa !35
  store ptr %33, ptr %9, align 8, !tbaa !35
  call void @llvm.lifetime.start.p0(i64 8, ptr %10) #7
  %34 = load ptr, ptr %8, align 8, !tbaa !34
  %35 = call i64 @avio_tell(ptr noundef %34)
  store i64 %35, ptr %10, align 8, !tbaa !37
  call void @llvm.lifetime.start.p0(i64 4, ptr %11) #7
  %36 = load ptr, ptr %9, align 8, !tbaa !35
  %37 = getelementptr inbounds nuw %struct.AVStream, ptr %36, i32 0, i32 3
  %38 = load ptr, ptr %37, align 8, !tbaa !41
  %39 = getelementptr inbounds nuw %struct.AVCodecParameters, ptr %38, i32 0, i32 24
  %40 = getelementptr inbounds nuw %struct.AVChannelLayout, ptr %39, i32 0, i32 1
  %41 = load i32, ptr %40, align 4, !tbaa !49
  store i32 %41, ptr %11, align 4, !tbaa !40
  call void @llvm.lifetime.start.p0(i64 4, ptr %12) #7
  %42 = load i64, ptr %10, align 8, !tbaa !37
  %43 = load ptr, ptr %7, align 8, !tbaa !32
  %44 = getelementptr inbounds nuw %struct.DSFContext, ptr %43, i32 0, i32 0
  %45 = load i64, ptr %44, align 8, !tbaa !59
  %46 = icmp uge i64 %42, %45
  br i1 %46, label %47, label %48

47:                                               ; preds = %2
  store i32 -541478725, ptr %3, align 4
  store i32 1, ptr %13, align 4
  br label %249

48:                                               ; preds = %2
  %49 = load ptr, ptr %7, align 8, !tbaa !32
  %50 = getelementptr inbounds nuw %struct.DSFContext, ptr %49, i32 0, i32 2
  %51 = load i64, ptr %50, align 8, !tbaa !60
  %52 = load ptr, ptr %7, align 8, !tbaa !32
  %53 = getelementptr inbounds nuw %struct.DSFContext, ptr %52, i32 0, i32 1
  %54 = load i64, ptr %53, align 8, !tbaa !55
  %55 = icmp ugt i64 %51, %54
  br i1 %55, label %56, label %190

56:                                               ; preds = %48
  call void @llvm.lifetime.start.p0(i64 4, ptr %14) #7
  %57 = load i64, ptr %10, align 8, !tbaa !37
  %58 = load ptr, ptr %7, align 8, !tbaa !32
  %59 = getelementptr inbounds nuw %struct.DSFContext, ptr %58, i32 0, i32 0
  %60 = load i64, ptr %59, align 8, !tbaa !59
  %61 = load ptr, ptr %9, align 8, !tbaa !35
  %62 = getelementptr inbounds nuw %struct.AVStream, ptr %61, i32 0, i32 3
  %63 = load ptr, ptr %62, align 8, !tbaa !41
  %64 = getelementptr inbounds nuw %struct.AVCodecParameters, ptr %63, i32 0, i32 26
  %65 = load i32, ptr %64, align 4, !tbaa !57
  %66 = sext i32 %65 to i64
  %67 = sub i64 %60, %66
  %68 = icmp eq i64 %57, %67
  %69 = zext i1 %68 to i32
  store i32 %69, ptr %14, align 4, !tbaa !40
  %70 = load i32, ptr %14, align 4, !tbaa !40
  %71 = icmp ne i32 %70, 0
  br i1 %71, label %72, label %186

72:                                               ; preds = %56
  call void @llvm.lifetime.start.p0(i64 8, ptr %15) #7
  %73 = load i64, ptr %10, align 8, !tbaa !37
  %74 = load ptr, ptr %6, align 8, !tbaa !63
  %75 = getelementptr inbounds nuw %struct.FFFormatContext, ptr %74, i32 0, i32 3
  %76 = load i64, ptr %75, align 8, !tbaa !66
  %77 = sub nsw i64 %73, %76
  store i64 %77, ptr %15, align 8, !tbaa !37
  call void @llvm.lifetime.start.p0(i64 8, ptr %16) #7
  %78 = load ptr, ptr %7, align 8, !tbaa !32
  %79 = getelementptr inbounds nuw %struct.DSFContext, ptr %78, i32 0, i32 1
  %80 = load i64, ptr %79, align 8, !tbaa !55
  %81 = load i64, ptr %15, align 8, !tbaa !37
  %82 = sub i64 %80, %81
  store i64 %82, ptr %16, align 8, !tbaa !37
  call void @llvm.lifetime.start.p0(i64 8, ptr %17) #7
  %83 = load ptr, ptr %7, align 8, !tbaa !32
  %84 = getelementptr inbounds nuw %struct.DSFContext, ptr %83, i32 0, i32 2
  %85 = load i64, ptr %84, align 8, !tbaa !60
  %86 = load i64, ptr %15, align 8, !tbaa !37
  %87 = sub i64 %85, %86
  %88 = load i64, ptr %16, align 8, !tbaa !37
  %89 = sub i64 %87, %88
  store i64 %89, ptr %17, align 8, !tbaa !37
  call void @llvm.lifetime.start.p0(i64 8, ptr %18) #7
  call void @llvm.lifetime.start.p0(i64 4, ptr %19) #7
  call void @llvm.lifetime.start.p0(i64 4, ptr %20) #7
  %90 = load i64, ptr %16, align 8, !tbaa !37
  %91 = icmp sle i64 %90, 0
  br i1 %91, label %95, label %92

92:                                               ; preds = %72
  %93 = load i64, ptr %17, align 8, !tbaa !37
  %94 = icmp sle i64 %93, 0
  br i1 %94, label %95, label %96

95:                                               ; preds = %92, %72
  store i32 -1094995529, ptr %3, align 4
  store i32 1, ptr %13, align 4
  br label %185

96:                                               ; preds = %92
  %97 = load ptr, ptr %5, align 8, !tbaa !61
  %98 = load i64, ptr %16, align 8, !tbaa !37
  %99 = trunc i64 %98 to i32
  %100 = call i32 @av_new_packet(ptr noundef %97, i32 noundef %99)
  store i32 %100, ptr %20, align 4, !tbaa !40
  %101 = icmp slt i32 %100, 0
  br i1 %101, label %102, label %104

102:                                              ; preds = %96
  %103 = load i32, ptr %20, align 4, !tbaa !40
  store i32 %103, ptr %3, align 4
  store i32 1, ptr %13, align 4
  br label %185

104:                                              ; preds = %96
  %105 = load ptr, ptr %5, align 8, !tbaa !61
  %106 = getelementptr inbounds nuw %struct.AVPacket, ptr %105, i32 0, i32 3
  %107 = load ptr, ptr %106, align 8, !tbaa !70
  store ptr %107, ptr %18, align 8, !tbaa !71
  store i32 0, ptr %19, align 4, !tbaa !40
  br label %108

108:                                              ; preds = %160, %104
  %109 = load i32, ptr %19, align 4, !tbaa !40
  %110 = load ptr, ptr %9, align 8, !tbaa !35
  %111 = getelementptr inbounds nuw %struct.AVStream, ptr %110, i32 0, i32 3
  %112 = load ptr, ptr %111, align 8, !tbaa !41
  %113 = getelementptr inbounds nuw %struct.AVCodecParameters, ptr %112, i32 0, i32 24
  %114 = getelementptr inbounds nuw %struct.AVChannelLayout, ptr %113, i32 0, i32 1
  %115 = load i32, ptr %114, align 4, !tbaa !49
  %116 = icmp slt i32 %109, %115
  br i1 %116, label %117, label %163

117:                                              ; preds = %108
  %118 = load ptr, ptr %8, align 8, !tbaa !34
  %119 = load ptr, ptr %18, align 8, !tbaa !71
  %120 = load i64, ptr %16, align 8, !tbaa !37
  %121 = load ptr, ptr %9, align 8, !tbaa !35
  %122 = getelementptr inbounds nuw %struct.AVStream, ptr %121, i32 0, i32 3
  %123 = load ptr, ptr %122, align 8, !tbaa !41
  %124 = getelementptr inbounds nuw %struct.AVCodecParameters, ptr %123, i32 0, i32 24
  %125 = getelementptr inbounds nuw %struct.AVChannelLayout, ptr %124, i32 0, i32 1
  %126 = load i32, ptr %125, align 4, !tbaa !49
  %127 = sext i32 %126 to i64
  %128 = sdiv i64 %120, %127
  %129 = trunc i64 %128 to i32
  %130 = call i32 @avio_read(ptr noundef %118, ptr noundef %119, i32 noundef %129)
  store i32 %130, ptr %20, align 4, !tbaa !40
  %131 = load i32, ptr %20, align 4, !tbaa !40
  %132 = sext i32 %131 to i64
  %133 = load i64, ptr %16, align 8, !tbaa !37
  %134 = load ptr, ptr %9, align 8, !tbaa !35
  %135 = getelementptr inbounds nuw %struct.AVStream, ptr %134, i32 0, i32 3
  %136 = load ptr, ptr %135, align 8, !tbaa !41
  %137 = getelementptr inbounds nuw %struct.AVCodecParameters, ptr %136, i32 0, i32 24
  %138 = getelementptr inbounds nuw %struct.AVChannelLayout, ptr %137, i32 0, i32 1
  %139 = load i32, ptr %138, align 4, !tbaa !49
  %140 = sext i32 %139 to i64
  %141 = sdiv i64 %133, %140
  %142 = icmp slt i64 %132, %141
  br i1 %142, label %143, label %144

143:                                              ; preds = %117
  store i32 -541478725, ptr %3, align 4
  store i32 1, ptr %13, align 4
  br label %185

144:                                              ; preds = %117
  %145 = load i32, ptr %20, align 4, !tbaa !40
  %146 = load ptr, ptr %18, align 8, !tbaa !71
  %147 = sext i32 %145 to i64
  %148 = getelementptr inbounds i8, ptr %146, i64 %147
  store ptr %148, ptr %18, align 8, !tbaa !71
  %149 = load ptr, ptr %8, align 8, !tbaa !34
  %150 = load i64, ptr %17, align 8, !tbaa !37
  %151 = load ptr, ptr %9, align 8, !tbaa !35
  %152 = getelementptr inbounds nuw %struct.AVStream, ptr %151, i32 0, i32 3
  %153 = load ptr, ptr %152, align 8, !tbaa !41
  %154 = getelementptr inbounds nuw %struct.AVCodecParameters, ptr %153, i32 0, i32 24
  %155 = getelementptr inbounds nuw %struct.AVChannelLayout, ptr %154, i32 0, i32 1
  %156 = load i32, ptr %155, align 4, !tbaa !49
  %157 = sext i32 %156 to i64
  %158 = sdiv i64 %150, %157
  %159 = call i64 @avio_skip(ptr noundef %149, i64 noundef %158)
  br label %160

160:                                              ; preds = %144
  %161 = load i32, ptr %19, align 4, !tbaa !40
  %162 = add nsw i32 %161, 1
  store i32 %162, ptr %19, align 4, !tbaa !40
  br label %108, !llvm.loop !72

163:                                              ; preds = %108
  %164 = load i64, ptr %10, align 8, !tbaa !37
  %165 = load ptr, ptr %5, align 8, !tbaa !61
  %166 = getelementptr inbounds nuw %struct.AVPacket, ptr %165, i32 0, i32 10
  store i64 %164, ptr %166, align 8, !tbaa !74
  %167 = load ptr, ptr %5, align 8, !tbaa !61
  %168 = getelementptr inbounds nuw %struct.AVPacket, ptr %167, i32 0, i32 5
  store i32 0, ptr %168, align 4, !tbaa !75
  %169 = load i64, ptr %10, align 8, !tbaa !37
  %170 = load ptr, ptr %6, align 8, !tbaa !63
  %171 = getelementptr inbounds nuw %struct.FFFormatContext, ptr %170, i32 0, i32 3
  %172 = load i64, ptr %171, align 8, !tbaa !66
  %173 = sub nsw i64 %169, %172
  %174 = load i32, ptr %11, align 4, !tbaa !40
  %175 = sext i32 %174 to i64
  %176 = sdiv i64 %173, %175
  %177 = load ptr, ptr %5, align 8, !tbaa !61
  %178 = getelementptr inbounds nuw %struct.AVPacket, ptr %177, i32 0, i32 1
  store i64 %176, ptr %178, align 8, !tbaa !76
  %179 = load i64, ptr %16, align 8, !tbaa !37
  %180 = load i32, ptr %11, align 4, !tbaa !40
  %181 = sext i32 %180 to i64
  %182 = sdiv i64 %179, %181
  %183 = load ptr, ptr %5, align 8, !tbaa !61
  %184 = getelementptr inbounds nuw %struct.AVPacket, ptr %183, i32 0, i32 9
  store i64 %182, ptr %184, align 8, !tbaa !77
  store i32 0, ptr %3, align 4
  store i32 1, ptr %13, align 4
  br label %185

185:                                              ; preds = %163, %143, %102, %95
  call void @llvm.lifetime.end.p0(i64 4, ptr %20) #7
  call void @llvm.lifetime.end.p0(i64 4, ptr %19) #7
  call void @llvm.lifetime.end.p0(i64 8, ptr %18) #7
  call void @llvm.lifetime.end.p0(i64 8, ptr %17) #7
  call void @llvm.lifetime.end.p0(i64 8, ptr %16) #7
  call void @llvm.lifetime.end.p0(i64 8, ptr %15) #7
  br label %187

186:                                              ; preds = %56
  store i32 0, ptr %13, align 4
  br label %187

187:                                              ; preds = %186, %185
  call void @llvm.lifetime.end.p0(i64 4, ptr %14) #7
  %188 = load i32, ptr %13, align 4
  switch i32 %188, label %249 [
    i32 0, label %189
  ]

189:                                              ; preds = %187
  br label %190

190:                                              ; preds = %189, %48
  %191 = load ptr, ptr %8, align 8, !tbaa !34
  %192 = load ptr, ptr %5, align 8, !tbaa !61
  %193 = load ptr, ptr %7, align 8, !tbaa !32
  %194 = getelementptr inbounds nuw %struct.DSFContext, ptr %193, i32 0, i32 0
  %195 = load i64, ptr %194, align 8, !tbaa !59
  %196 = load i64, ptr %10, align 8, !tbaa !37
  %197 = sub i64 %195, %196
  %198 = load ptr, ptr %9, align 8, !tbaa !35
  %199 = getelementptr inbounds nuw %struct.AVStream, ptr %198, i32 0, i32 3
  %200 = load ptr, ptr %199, align 8, !tbaa !41
  %201 = getelementptr inbounds nuw %struct.AVCodecParameters, ptr %200, i32 0, i32 26
  %202 = load i32, ptr %201, align 4, !tbaa !57
  %203 = sext i32 %202 to i64
  %204 = icmp ugt i64 %197, %203
  br i1 %204, label %205, label %212

205:                                              ; preds = %190
  %206 = load ptr, ptr %9, align 8, !tbaa !35
  %207 = getelementptr inbounds nuw %struct.AVStream, ptr %206, i32 0, i32 3
  %208 = load ptr, ptr %207, align 8, !tbaa !41
  %209 = getelementptr inbounds nuw %struct.AVCodecParameters, ptr %208, i32 0, i32 26
  %210 = load i32, ptr %209, align 4, !tbaa !57
  %211 = sext i32 %210 to i64
  br label %218

212:                                              ; preds = %190
  %213 = load ptr, ptr %7, align 8, !tbaa !32
  %214 = getelementptr inbounds nuw %struct.DSFContext, ptr %213, i32 0, i32 0
  %215 = load i64, ptr %214, align 8, !tbaa !59
  %216 = load i64, ptr %10, align 8, !tbaa !37
  %217 = sub i64 %215, %216
  br label %218

218:                                              ; preds = %212, %205
  %219 = phi i64 [ %211, %205 ], [ %217, %212 ]
  %220 = trunc i64 %219 to i32
  %221 = call i32 @av_get_packet(ptr noundef %191, ptr noundef %192, i32 noundef %220)
  store i32 %221, ptr %12, align 4, !tbaa !40
  %222 = load i32, ptr %12, align 4, !tbaa !40
  %223 = icmp slt i32 %222, 0
  br i1 %223, label %224, label %226

224:                                              ; preds = %218
  %225 = load i32, ptr %12, align 4, !tbaa !40
  store i32 %225, ptr %3, align 4
  store i32 1, ptr %13, align 4
  br label %249

226:                                              ; preds = %218
  %227 = load ptr, ptr %5, align 8, !tbaa !61
  %228 = getelementptr inbounds nuw %struct.AVPacket, ptr %227, i32 0, i32 5
  store i32 0, ptr %228, align 4, !tbaa !75
  %229 = load i64, ptr %10, align 8, !tbaa !37
  %230 = load ptr, ptr %6, align 8, !tbaa !63
  %231 = getelementptr inbounds nuw %struct.FFFormatContext, ptr %230, i32 0, i32 3
  %232 = load i64, ptr %231, align 8, !tbaa !66
  %233 = sub nsw i64 %229, %232
  %234 = load i32, ptr %11, align 4, !tbaa !40
  %235 = sext i32 %234 to i64
  %236 = sdiv i64 %233, %235
  %237 = load ptr, ptr %5, align 8, !tbaa !61
  %238 = getelementptr inbounds nuw %struct.AVPacket, ptr %237, i32 0, i32 1
  store i64 %236, ptr %238, align 8, !tbaa !76
  %239 = load ptr, ptr %9, align 8, !tbaa !35
  %240 = getelementptr inbounds nuw %struct.AVStream, ptr %239, i32 0, i32 3
  %241 = load ptr, ptr %240, align 8, !tbaa !41
  %242 = getelementptr inbounds nuw %struct.AVCodecParameters, ptr %241, i32 0, i32 26
  %243 = load i32, ptr %242, align 4, !tbaa !57
  %244 = load i32, ptr %11, align 4, !tbaa !40
  %245 = sdiv i32 %243, %244
  %246 = sext i32 %245 to i64
  %247 = load ptr, ptr %5, align 8, !tbaa !61
  %248 = getelementptr inbounds nuw %struct.AVPacket, ptr %247, i32 0, i32 9
  store i64 %246, ptr %248, align 8, !tbaa !77
  store i32 0, ptr %3, align 4
  store i32 1, ptr %13, align 4
  br label %249

249:                                              ; preds = %226, %224, %187, %47
  call void @llvm.lifetime.end.p0(i64 4, ptr %12) #7
  call void @llvm.lifetime.end.p0(i64 4, ptr %11) #7
  call void @llvm.lifetime.end.p0(i64 8, ptr %10) #7
  call void @llvm.lifetime.end.p0(i64 8, ptr %9) #7
  call void @llvm.lifetime.end.p0(i64 8, ptr %8) #7
  call void @llvm.lifetime.end.p0(i64 8, ptr %7) #7
  call void @llvm.lifetime.end.p0(i64 8, ptr %6) #7
  %250 = load i32, ptr %3, align 4
  ret i32 %250
}