; Function Attrs: nounwind uwtable
define internal range(i32 -2147483648, 1) i32 @dsf_read_packet(ptr noundef readonly captures(none) %0, ptr noundef %1) #1 {
  %3 = getelementptr inbounds nuw i8, ptr %0, i64 24
  %4 = load ptr, ptr %3, align 8, !tbaa !13
  %5 = getelementptr inbounds nuw i8, ptr %0, i64 32
  %6 = load ptr, ptr %5, align 8, !tbaa !28
  %7 = getelementptr inbounds nuw i8, ptr %0, i64 48
  %8 = load ptr, ptr %7, align 8, !tbaa !55
  %9 = load ptr, ptr %8, align 8, !tbaa !56
  %10 = tail call i64 @avio_seek(ptr noundef %6, i64 noundef 0, i32 noundef 1) #7
  %11 = getelementptr inbounds nuw i8, ptr %9, i64 16
  %12 = load ptr, ptr %11, align 8, !tbaa !33
  %13 = getelementptr inbounds nuw i8, ptr %12, i64 132
  %14 = load i32, ptr %13, align 4, !tbaa !43
  %15 = load i64, ptr %4, align 8, !tbaa !53
  %.not = icmp ult i64 %10, %15
  br i1 %.not, label %16, label %.thread

16:                                               ; preds = %2
  %17 = getelementptr inbounds nuw i8, ptr %4, i64 16
  %18 = load i64, ptr %17, align 8, !tbaa !54
  %19 = getelementptr inbounds nuw i8, ptr %4, i64 8
  %20 = load i64, ptr %19, align 8, !tbaa !49
  %21 = icmp ugt i64 %18, %20
  %22 = getelementptr inbounds nuw i8, ptr %12, i64 156
  %23 = load i32, ptr %22, align 4, !tbaa !51
  %24 = sext i32 %23 to i64
  %25 = sub i64 %15, %24
  %.not88 = icmp eq i64 %10, %25
  %or.cond95 = select i1 %21, i1 %.not88, i1 false
  br i1 %or.cond95, label %26, label %.thread90

26:                                               ; preds = %16
  %27 = getelementptr inbounds nuw i8, ptr %0, i64 496
  %28 = load i64, ptr %27, align 8, !tbaa !58
  %.neg = sub i64 %28, %10
  %29 = add i64 %.neg, %20
  %30 = sub nuw i64 %18, %20
  %31 = icmp slt i64 %29, 1
  %32 = icmp slt i64 %30, 1
  %or.cond = or i1 %32, %31
  br i1 %or.cond, label %.thread, label %33

33:                                               ; preds = %26
  %34 = trunc i64 %29 to i32
  %35 = tail call i32 @av_new_packet(ptr noundef %1, i32 noundef %34) #7
  %36 = icmp slt i32 %35, 0
  br i1 %36, label %.thread, label %37

37:                                               ; preds = %33
  %38 = load ptr, ptr %11, align 8, !tbaa !33
  %39 = getelementptr inbounds nuw i8, ptr %38, i64 132
  %40 = load i32, ptr %39, align 4, !tbaa !43
  %41 = icmp sgt i32 %40, 0
  br i1 %41, label %.lr.ph.preheader, label %._crit_edge

.lr.ph.preheader:                                 ; preds = %37
  %42 = getelementptr inbounds nuw i8, ptr %1, i64 24
  %43 = load ptr, ptr %42, align 8, !tbaa !63
  br label %.lr.ph

.lr.ph:                                           ; preds = %.lr.ph.preheader, %56
  %44 = phi i32 [ %63, %56 ], [ %40, %.lr.ph.preheader ]
  %.093 = phi i32 [ %60, %56 ], [ 0, %.lr.ph.preheader ]
  %.07292 = phi ptr [ %57, %56 ], [ %43, %.lr.ph.preheader ]
  %45 = sext i32 %44 to i64
  %46 = sdiv i64 %29, %45
  %47 = trunc i64 %46 to i32
  %48 = tail call i32 @avio_read(ptr noundef %6, ptr noundef %.07292, i32 noundef %47) #7
  %49 = sext i32 %48 to i64
  %50 = load ptr, ptr %11, align 8, !tbaa !33
  %51 = getelementptr inbounds nuw i8, ptr %50, i64 132
  %52 = load i32, ptr %51, align 4, !tbaa !43
  %53 = sext i32 %52 to i64
  %54 = sdiv i64 %29, %53
  %55 = icmp sgt i64 %54, %49
  br i1 %55, label %.thread, label %56

56:                                               ; preds = %.lr.ph
  %57 = getelementptr inbounds i8, ptr %.07292, i64 %49
  %58 = sdiv i64 %30, %53
  %59 = tail call i64 @avio_skip(ptr noundef %6, i64 noundef %58) #7
  %60 = add nuw nsw i32 %.093, 1
  %61 = load ptr, ptr %11, align 8, !tbaa !33
  %62 = getelementptr inbounds nuw i8, ptr %61, i64 132
  %63 = load i32, ptr %62, align 4, !tbaa !43
  %64 = icmp slt i32 %60, %63
  br i1 %64, label %.lr.ph, label %._crit_edge, !llvm.loop !64

._crit_edge:                                      ; preds = %56, %37
  %65 = getelementptr inbounds nuw i8, ptr %1, i64 72
  store i64 %10, ptr %65, align 8, !tbaa !66
  %66 = getelementptr inbounds nuw i8, ptr %1, i64 36
  store i32 0, ptr %66, align 4, !tbaa !67
  %67 = load i64, ptr %27, align 8, !tbaa !58
  %68 = sub nsw i64 %10, %67
  %69 = sext i32 %14 to i64
  %70 = sdiv i64 %68, %69
  %71 = getelementptr inbounds nuw i8, ptr %1, i64 8
  store i64 %70, ptr %71, align 8, !tbaa !68
  %72 = sdiv i64 %29, %69
  br label %.thread.sink.split

.thread90:                                        ; preds = %16
  %73 = sub i64 %15, %10
  %74 = tail call i64 @llvm.umin.i64(i64 %73, i64 %24)
  %75 = trunc i64 %74 to i32
  %76 = tail call i32 @av_get_packet(ptr noundef %6, ptr noundef %1, i32 noundef %75) #7
  %77 = icmp slt i32 %76, 0
  br i1 %77, label %.thread, label %78

78:                                               ; preds = %.thread90
  %79 = getelementptr inbounds nuw i8, ptr %1, i64 36
  store i32 0, ptr %79, align 4, !tbaa !67
  %80 = getelementptr inbounds nuw i8, ptr %0, i64 496
  %81 = load i64, ptr %80, align 8, !tbaa !58
  %82 = sub nsw i64 %10, %81
  %83 = sext i32 %14 to i64
  %84 = sdiv i64 %82, %83
  %85 = getelementptr inbounds nuw i8, ptr %1, i64 8
  store i64 %84, ptr %85, align 8, !tbaa !68
  %86 = load ptr, ptr %11, align 8, !tbaa !33
  %87 = getelementptr inbounds nuw i8, ptr %86, i64 156
  %88 = load i32, ptr %87, align 4, !tbaa !51
  %89 = sdiv i32 %88, %14
  %90 = sext i32 %89 to i64
  br label %.thread.sink.split

.thread.sink.split:                               ; preds = %78, %._crit_edge
  %.sink = phi i64 [ %72, %._crit_edge ], [ %90, %78 ]
  %91 = getelementptr inbounds nuw i8, ptr %1, i64 64
  store i64 %.sink, ptr %91, align 8, !tbaa !69
  br label %.thread

.thread:                                          ; preds = %.lr.ph, %.thread.sink.split, %33, %26, %.thread90, %2
  %.073 = phi i32 [ -541478725, %2 ], [ %76, %.thread90 ], [ %35, %33 ], [ -1094995529, %26 ], [ 0, %.thread.sink.split ], [ -541478725, %.lr.ph ]
  ret i32 %.073
}